; Function Attrs: nounwind sspstrong uwtable
define internal fastcc void @postcopy_preempt_send_channel_done(ptr noundef %s, ptr noundef %ioc, ptr noundef %local_err) unnamed_addr #0 {
entry:
  %_now.i.i = alloca %struct.timeval, align 8
  %tobool.not = icmp eq ptr %local_err, null
  br i1 %tobool.not, label %if.else, label %if.then

if.then:                                          ; preds = %entry
  tail call void @migrate_set_error(ptr noundef %s, ptr noundef nonnull %local_err) #16
  tail call void @error_free(ptr noundef nonnull %local_err) #16
  br label %if.end

if.else:                                          ; preds = %entry
  tail call void @migration_ioc_register_yank(ptr noundef %ioc) #16
  %call = tail call ptr @qemu_file_new_output(ptr noundef %ioc) #16
  %postcopy_qemufile_src = getelementptr inbounds nuw i8, ptr %s, i64 192
  store ptr %call, ptr %postcopy_qemufile_src, align 8
  call void @llvm.lifetime.start.p0(i64 16, ptr nonnull %_now.i.i)
  %0 = load i32, ptr @trace_events_enabled_count, align 4
  %tobool.i.i = icmp ne i32 %0, 0
  %1 = load i16, ptr @_TRACE_POSTCOPY_PREEMPT_NEW_CHANNEL_DSTATE, align 2
  %tobool4.i.i = icmp ne i16 %1, 0
  %or.cond.i.i = select i1 %tobool.i.i, i1 %tobool4.i.i, i1 false
  br i1 %or.cond.i.i, label %land.lhs.true5.i.i, label %trace_postcopy_preempt_new_channel.exit

land.lhs.true5.i.i:                               ; preds = %if.else
  %2 = load i32, ptr @qemu_loglevel, align 4
  %and.i.i.i = and i32 %2, 32768
  %cmp.i.not.i.i = icmp eq i32 %and.i.i.i, 0
  br i1 %cmp.i.not.i.i, label %trace_postcopy_preempt_new_channel.exit, label %if.then.i.i

if.then.i.i:                                      ; preds = %land.lhs.true5.i.i
  %3 = load i8, ptr @message_with_timestamp, align 1
  %tobool7.i.i = trunc i8 %3 to i1
  br i1 %tobool7.i.i, label %if.then8.i.i, label %if.else.i.i

if.then8.i.i:                                     ; preds = %if.then.i.i
  %call9.i.i = call i32 @gettimeofday(ptr noundef nonnull %_now.i.i, ptr noundef null) #16
  %call10.i.i = tail call i32 @qemu_get_thread_id() #16
  %4 = load i64, ptr %_now.i.i, align 8
  %tv_usec.i.i = getelementptr inbounds nuw i8, ptr %_now.i.i, i64 8
  %5 = load i64, ptr %tv_usec.i.i, align 8
  tail call void (ptr, ...) @qemu_log(ptr noundef nonnull @.str.104, i32 noundef %call10.i.i, i64 noundef %4, i64 noundef %5) #16
  br label %trace_postcopy_preempt_new_channel.exit

if.else.i.i:                                      ; preds = %if.then.i.i
  tail call void (ptr, ...) @qemu_log(ptr noundef nonnull @.str.105) #16
  br label %trace_postcopy_preempt_new_channel.exit

trace_postcopy_preempt_new_channel.exit:          ; preds = %if.else, %land.lhs.true5.i.i, %if.then8.i.i, %if.else.i.i
  call void @llvm.lifetime.end.p0(i64 16, ptr nonnull %_now.i.i)
  br label %if.end

if.end:                                           ; preds = %trace_postcopy_preempt_new_channel.exit, %if.then
  %postcopy_qemufile_src_sem = getelementptr inbounds nuw i8, ptr %s, i64 200
  tail call void @qemu_sem_post(ptr noundef nonnull %postcopy_qemufile_src_sem) #16
  ret void
}